; ModuleID = '51/152.c'
source_filename = "51/152.c"
target datalayout = "e-m:e-p270:32:32-p271:32:32-p272:64:64-i64:64-f80:128-n8:16:32:64-S128"
target triple = "x86_64-pc-linux-gnu"

@.str = private unnamed_addr constant [3 x i8] c"%d\00", align 1
@.str.1 = private unnamed_addr constant [4 x i8] c"NO\0A\00", align 1
@.str.2 = private unnamed_addr constant [4 x i8] c"%d\0A\00", align 1

; Function Attrs: noinline nounwind uwtable
define dso_local i32 @main() #0 {
  %1 = alloca i32, align 4
  %2 = alloca [504 x i8], align 16
  %3 = alloca [500 x [8 x i8]], align 16
  %4 = alloca [8 x i8], align 1
  %5 = alloca [500 x i32], align 16
  %6 = alloca i32, align 4
  %7 = alloca i32, align 4
  %8 = alloca i32, align 4
  %9 = alloca i32, align 4
  %10 = alloca i32, align 4
  %11 = alloca i32, align 4
  store i32 0, i32* %1, align 4
  %12 = bitcast [504 x i8]* %2 to i8*
  call void @llvm.memset.p0i8.i64(i8* align 16 %12, i8 0, i64 504, i1 false)
  %13 = bitcast [500 x i32]* %5 to i8*
  call void @llvm.memset.p0i8.i64(i8* align 16 %13, i8 0, i64 2000, i1 false)
  store i32 0, i32* %6, align 4
  %14 = call i32 (i8*, ...) @__isoc99_scanf(i8* getelementptr inbounds ([3 x i8], [3 x i8]* @.str, i64 0, i64 0), i32* %7)
  %15 = call i32 @getchar()
  %16 = getelementptr inbounds [504 x i8], [504 x i8]* %2, i64 0, i64 0
  %17 = call i32 (i8*, ...) bitcast (i32 (...)* @gets to i32 (i8*, ...)*)(i8* %16)
  %18 = getelementptr inbounds [504 x i8], [504 x i8]* %2, i64 0, i64 0
  %19 = call i64 @strlen(i8* %18) #5
  %20 = trunc i64 %19 to i32
  store i32 %20, i32* %10, align 4
  store i32 0, i32* %8, align 4
  br label %21

21:                                               ; preds = %89, %0
  %22 = load i32, i32* %8, align 4
  %23 = load i32, i32* %10, align 4
  %24 = load i32, i32* %7, align 4
  %25 = sub nsw i32 %23, %24
  %26 = add nsw i32 %25, 1
  %27 = icmp slt i32 %22, %26
  br i1 %27, label %28, label %92

28:                                               ; preds = %21
  store i32 0, i32* %9, align 4
  br label %29

29:                                               ; preds = %43, %28
  %30 = load i32, i32* %9, align 4
  %31 = load i32, i32* %7, align 4
  %32 = icmp slt i32 %30, %31
  br i1 %32, label %33, label %46

33:                                               ; preds = %29
  %34 = load i32, i32* %8, align 4
  %35 = load i32, i32* %9, align 4
  %36 = add nsw i32 %34, %35
  %37 = sext i32 %36 to i64
  %38 = getelementptr inbounds [504 x i8], [504 x i8]* %2, i64 0, i64 %37
  %39 = load i8, i8* %38, align 1
  %40 = load i32, i32* %9, align 4
  %41 = sext i32 %40 to i64
  %42 = getelementptr inbounds [8 x i8], [8 x i8]* %4, i64 0, i64 %41
  store i8 %39, i8* %42, align 1
  br label %43

43:                                               ; preds = %33
  %44 = load i32, i32* %9, align 4
  %45 = add nsw i32 %44, 1
  store i32 %45, i32* %9, align 4
  br label %29

46:                                               ; preds = %29
  %47 = load i32, i32* %7, align 4
  %48 = sext i32 %47 to i64
  %49 = getelementptr inbounds [8 x i8], [8 x i8]* %4, i64 0, i64 %48
  store i8 0, i8* %49, align 1
  store i32 0, i32* %9, align 4
  br label %50

50:                                               ; preds = %69, %46
  %51 = load i32, i32* %9, align 4
  %52 = load i32, i32* %6, align 4
  %53 = icmp slt i32 %51, %52
  br i1 %53, label %54, label %72

54:                                               ; preds = %50
  %55 = load i32, i32* %9, align 4
  %56 = sext i32 %55 to i64
  %57 = getelementptr inbounds [500 x [8 x i8]], [500 x [8 x i8]]* %3, i64 0, i64 %56
  %58 = getelementptr inbounds [8 x i8], [8 x i8]* %57, i64 0, i64 0
  %59 = getelementptr inbounds [8 x i8], [8 x i8]* %4, i64 0, i64 0
  %60 = call i32 @strcmp(i8* %58, i8* %59) #5
  %61 = icmp eq i32 %60, 0
  br i1 %61, label %62, label %68

62:                                               ; preds = %54
  %63 = load i32, i32* %9, align 4
  %64 = sext i32 %63 to i64
  %65 = getelementptr inbounds [500 x i32], [500 x i32]* %5, i64 0, i64 %64
  %66 = load i32, i32* %65, align 4
  %67 = add nsw i32 %66, 1
  store i32 %67, i32* %65, align 4
  br label %72

68:                                               ; preds = %54
  br label %69

69:                                               ; preds = %68
  %70 = load i32, i32* %9, align 4
  %71 = add nsw i32 %70, 1
  store i32 %71, i32* %9, align 4
  br label %50

72:                                               ; preds = %62, %50
  %73 = load i32, i32* %9, align 4
  %74 = load i32, i32* %6, align 4
  %75 = icmp eq i32 %73, %74
  br i1 %75, label %76, label %88

76:                                               ; preds = %72
  %77 = load i32, i32* %6, align 4
  %78 = sext i32 %77 to i64
  %79 = getelementptr inbounds [500 x [8 x i8]], [500 x [8 x i8]]* %3, i64 0, i64 %78
  %80 = getelementptr inbounds [8 x i8], [8 x i8]* %79, i64 0, i64 0
  %81 = getelementptr inbounds [8 x i8], [8 x i8]* %4, i64 0, i64 0
  %82 = call i8* @strcpy(i8* %80, i8* %81) #6
  %83 = load i32, i32* %6, align 4
  %84 = sext i32 %83 to i64
  %85 = getelementptr inbounds [500 x i32], [500 x i32]* %5, i64 0, i64 %84
  store i32 1, i32* %85, align 4
  %86 = load i32, i32* %6, align 4
  %87 = add nsw i32 %86, 1
  store i32 %87, i32* %6, align 4
  br label %88

88:                                               ; preds = %76, %72
  br label %89

89:                                               ; preds = %88
  %90 = load i32, i32* %8, align 4
  %91 = add nsw i32 %90, 1
  store i32 %91, i32* %8, align 4
  br label %21

92:                                               ; preds = %21
  store i32 0, i32* %11, align 4
  store i32 0, i32* %8, align 4
  br label %93

93:                                               ; preds = %110, %92
  %94 = load i32, i32* %8, align 4
  %95 = load i32, i32* %6, align 4
  %96 = icmp slt i32 %94, %95
  br i1 %96, label %97, label %113

97:                                               ; preds = %93
  %98 = load i32, i32* %8, align 4
  %99 = sext i32 %98 to i64
  %100 = getelementptr inbounds [500 x i32], [500 x i32]* %5, i64 0, i64 %99
  %101 = load i32, i32* %100, align 4
  %102 = load i32, i32* %11, align 4
  %103 = icmp sgt i32 %101, %102
  br i1 %103, label %104, label %109

104:                                              ; preds = %97
  %105 = load i32, i32* %8, align 4
  %106 = sext i32 %105 to i64
  %107 = getelementptr inbounds [500 x i32], [500 x i32]* %5, i64 0, i64 %106
  %108 = load i32, i32* %107, align 4
  store i32 %108, i32* %11, align 4
  br label %109

109:                                              ; preds = %104, %97
  br label %110

110:                                              ; preds = %109
  %111 = load i32, i32* %8, align 4
  %112 = add nsw i32 %111, 1
  store i32 %112, i32* %8, align 4
  br label %93

113:                                              ; preds = %93
  %114 = load i32, i32* %11, align 4
  %115 = icmp eq i32 %114, 1
  br i1 %115, label %116, label %118

116:                                              ; preds = %113
  %117 = call i32 (i8*, ...) @printf(i8* getelementptr inbounds ([4 x i8], [4 x i8]* @.str.1, i64 0, i64 0))
  br label %143

118:                                              ; preds = %113
  %119 = load i32, i32* %11, align 4
  %120 = call i32 (i8*, ...) @printf(i8* getelementptr inbounds ([4 x i8], [4 x i8]* @.str.2, i64 0, i64 0), i32 %119)
  store i32 0, i32* %8, align 4
  br label %121

121:                                              ; preds = %139, %118
  %122 = load i32, i32* %8, align 4
  %123 = load i32, i32* %6, align 4
  %124 = icmp slt i32 %122, %123
  br i1 %124, label %125, label %142

125:                                              ; preds = %121
  %126 = load i32, i32* %8, align 4
  %127 = sext i32 %126 to i64
  %128 = getelementptr inbounds [500 x i32], [500 x i32]* %5, i64 0, i64 %127
  %129 = load i32, i32* %128, align 4
  %130 = load i32, i32* %11, align 4
  %131 = icmp eq i32 %129, %130
  br i1 %131, label %132, label %138

132:                                              ; preds = %125
  %133 = load i32, i32* %8, align 4
  %134 = sext i32 %133 to i64
  %135 = getelementptr inbounds [500 x [8 x i8]], [500 x [8 x i8]]* %3, i64 0, i64 %134
  %136 = getelementptr inbounds [8 x i8], [8 x i8]* %135, i64 0, i64 0
  %137 = call i32 @puts(i8* %136)
  br label %138

138:                                              ; preds = %132, %125
  br label %139

139:                                              ; preds = %138
  %140 = load i32, i32* %8, align 4
  %141 = add nsw i32 %140, 1
  store i32 %141, i32* %8, align 4
  br label %121

142:                                              ; preds = %121
  br label %143

143:                                              ; preds = %142, %116
  ret i32 0
}

; Function Attrs: argmemonly nounwind willreturn
declare void @llvm.memset.p0i8.i64(i8* nocapture writeonly, i8, i64, i1 immarg) #1

declare dso_local i32 @__isoc99_scanf(i8*, ...) #2

declare dso_local i32 @getchar() #2

declare dso_local i32 @gets(...) #2

; Function Attrs: nounwind readonly
declare dso_local i64 @strlen(i8*) #3

; Function Attrs: nounwind readonly
declare dso_local i32 @strcmp(i8*, i8*) #3

; Function Attrs: nounwind
declare dso_local i8* @strcpy(i8*, i8*) #4

declare dso_local i32 @printf(i8*, ...) #2

declare dso_local i32 @puts(i8*) #2


!llvm.module.flags = !{!0}
!llvm.ident = !{!1}

!0 = !{i32 1, !"wchar_size", i32 4}
!1 = !{!"clang version 10.0.0-4ubuntu1 "}
